; Function Attrs: nounwind sspstrong uwtable
define internal range(i32 0, 2) i32 @qio_channel_tls_source_prepare(ptr noundef readonly captures(none) %source, ptr noundef writeonly captures(none) initializes((0, 4)) %timeout) #0 {
entry:
  store i32 -1, ptr %timeout, align 4
  %tioc.i = getelementptr inbounds nuw i8, ptr %source, i64 96
  %0 = load ptr, ptr %tioc.i, align 8
  %session.i = getelementptr inbounds nuw i8, ptr %0, i64 104
  %1 = load ptr, ptr %session.i, align 8
  %call.i = tail call i64 @qcrypto_tls_session_check_pending(ptr noundef %1) #8
  %cmp.i = icmp ne i64 %call.i, 0
  %conv.i = zext i1 %cmp.i to i32
  ret i32 %conv.i
}